target datalayout = "e-m:e-p270:32:32-p271:32:32-p272:64:64-i64:64-i128:128-f80:128-n8:16:32:64-S128"
target triple = "x86_64-pc-linux-gnu"

%struct.xcgroup_t = type { ptr, ptr, ptr, i32, i32, i32 }
%struct.slurm_conf_t = type { i64, ptr, i16, ptr, ptr, ptr, ptr, ptr, i16, ptr, ptr, ptr, ptr, ptr, ptr, ptr, i16, ptr, ptr, ptr, ptr, i16, ptr, ptr, ptr, i64, ptr, ptr, ptr, ptr, i16, ptr, ptr, i16, i32, ptr, i32, ptr, i32, i32, ptr, ptr, i64, i64, ptr, i16, i16, ptr, i32, i32, ptr, i32, ptr, i32, i16, i16, i16, ptr, i16, i16, ptr, ptr, i32, i16, i16, ptr, i32, i16, ptr, ptr, ptr, ptr, i16, ptr, ptr, ptr, ptr, i32, ptr, ptr, ptr, ptr, i16, i16, ptr, i32, i32, i32, i16, i16, ptr, ptr, i16, ptr, ptr, i32, i32, i32, i32, i32, i64, i32, i32, i16, ptr, ptr, i32, ptr, ptr, ptr, i16, i32, ptr, ptr, i16, ptr, ptr, i32, i16, ptr, ptr, ptr, ptr, i32, i32, i16, i16, i32, ptr, i16, ptr, i32, i32, i32, i32, i32, i32, ptr, i16, ptr, ptr, i32, i16, ptr, i32, i16, i16, ptr, ptr, ptr, i16, ptr, ptr, ptr, ptr, i16, i16, ptr, i16, ptr, i16, ptr, i16, ptr, i16, ptr, ptr, ptr, ptr, i16, ptr, ptr, ptr, i32, ptr, i32, ptr, ptr, i16, ptr, ptr, i32, i16, ptr, ptr, i16, i16, ptr, i16, ptr, ptr, ptr, i32, ptr, i16, i16, ptr, ptr, ptr, ptr, ptr, ptr, ptr, ptr, i16, i32, i16, ptr, ptr, ptr, ptr, i32, ptr, ptr, ptr, i16, ptr, ptr, ptr, i16, ptr, i16, ptr, i16, i16, ptr }

@plugin_type = dso_local constant [10 x i8] c"cgroup/v1\00", align 1
@.str.14 = private unnamed_addr constant [19 x i8] c"memory.oom_control\00", align 1
@slurm_conf = external global %struct.slurm_conf_t, align 8
@.str.35 = private unnamed_addr constant [10 x i8] c"oom_kill \00", align 1
@oom_kill_count = internal global i64 0, align 8
@.str.105 = private unnamed_addr constant [13 x i8] c"oom_kill %lu\00", align 1
@.str.106 = private unnamed_addr constant [58 x i8] c"Cannot parse oom_kill counter from %s memory.oom_control.\00", align 1
@.str.107 = private unnamed_addr constant [56 x i8] c"%s: %s: CGROUP: Detected %lu out-of-memory events in %s\00", align 1
@__func__._get_oom_kill_from_file = private unnamed_addr constant [24 x i8] c"_get_oom_kill_from_file\00", align 1

; Function Attrs: nounwind uwtable
define internal i32 @_get_oom_kill_from_file(ptr noundef %0) #0 {
  %2 = alloca i32, align 4
  %3 = alloca ptr, align 8
  %4 = alloca ptr, align 8
  %5 = alloca ptr, align 8
  %6 = alloca i64, align 8
  %7 = alloca i64, align 8
  %8 = alloca i32, align 4
  store ptr %0, ptr %3, align 8
  call void @llvm.lifetime.start.p0(i64 8, ptr %4) #7
  store ptr null, ptr %4, align 8
  call void @llvm.lifetime.start.p0(i64 8, ptr %5) #7
  call void @llvm.lifetime.start.p0(i64 8, ptr %6) #7
  call void @llvm.lifetime.start.p0(i64 8, ptr %7) #7
  store i64 0, ptr %7, align 8
  %9 = load ptr, ptr %3, align 8
  %10 = call i32 @common_cgroup_get_param(ptr noundef %9, ptr noundef @.str.14, ptr noundef %4, ptr noundef %6)
  %11 = icmp ne i32 %10, 0
  br i1 %11, label %12, label %13

12:                                               ; preds = %1
  store i32 -1, ptr %2, align 4
  store i32 1, ptr %8, align 4
  br label %54

13:                                               ; preds = %1
  %14 = load ptr, ptr %4, align 8
  %15 = icmp ne ptr %14, null
  br i1 %15, label %16, label %53

16:                                               ; preds = %13
  %17 = load ptr, ptr %4, align 8
  %18 = call ptr @xstrstr(ptr noundef %17, ptr noundef @.str.35)
  store ptr %18, ptr %5, align 8
  %19 = icmp ne ptr %18, null
  br i1 %19, label %20, label %30

20:                                               ; preds = %16
  %21 = load ptr, ptr %5, align 8
  %22 = call i32 (ptr, ptr, ...) @__isoc99_sscanf(ptr noundef %21, ptr noundef @.str.105, ptr noundef %7) #7
  %23 = icmp ne i32 %22, 1
  br i1 %23, label %24, label %29

24:                                               ; preds = %20
  %25 = load ptr, ptr %3, align 8
  %26 = getelementptr inbounds nuw %struct.xcgroup_t, ptr %25, i32 0, i32 2
  %27 = load ptr, ptr %26, align 8
  %28 = call i32 (ptr, ...) @error(ptr noundef @.str.106, ptr noundef %27)
  br label %29

29:                                               ; preds = %24, %20
  br label %30

30:                                               ; preds = %29, %16
  call void @slurm_xfree(ptr noundef %4)
  br label %31

31:                                               ; preds = %30
  %32 = load i64, ptr getelementptr inbounds nuw (%struct.slurm_conf_t, ptr @slurm_conf, i32 0, i32 42), align 8
  %33 = and i64 %32, 36028797018963968
  %34 = icmp ne i64 %33, 0
  br i1 %34, label %35, label %47

35:                                               ; preds = %31
  br label %36

36:                                               ; preds = %35
  %37 = call i32 @get_log_level()
  %38 = icmp sge i32 %37, 4
  br i1 %38, label %39, label %44

39:                                               ; preds = %36
  %40 = load i64, ptr %7, align 8
  %41 = load ptr, ptr %3, align 8
  %42 = getelementptr inbounds nuw %struct.xcgroup_t, ptr %41, i32 0, i32 2
  %43 = load ptr, ptr %42, align 8
  call void (i32, ptr, ...) @log_var(i32 noundef 4, ptr noundef @.str.107, ptr noundef @plugin_type, ptr noundef @__func__._get_oom_kill_from_file, i64 noundef %40, ptr noundef %43)
  br label %44

44:                                               ; preds = %39, %36
  br label %45

45:                                               ; preds = %44
  br label %46

46:                                               ; preds = %45
  br label %47

47:                                               ; preds = %46, %31
  br label %48

48:                                               ; preds = %47
  br label %49

49:                                               ; preds = %48
  %50 = load i64, ptr %7, align 8
  %51 = load i64, ptr @oom_kill_count, align 8
  %52 = add i64 %51, %50
  store i64 %52, ptr @oom_kill_count, align 8
  br label %53

53:                                               ; preds = %49, %13
  store i32 0, ptr %2, align 4
  store i32 1, ptr %8, align 4
  br label %54

54:                                               ; preds = %53, %12
  call void @llvm.lifetime.end.p0(i64 8, ptr %7) #7
  call void @llvm.lifetime.end.p0(i64 8, ptr %6) #7
  call void @llvm.lifetime.end.p0(i64 8, ptr %5) #7
  call void @llvm.lifetime.end.p0(i64 8, ptr %4) #7
  %55 = load i32, ptr %2, align 4
  ret i32 %55
}