; Function Attrs: nounwind uwtable
define internal fastcc range(i32 -1, 1) i32 @_get_oom_kill_from_file(ptr noundef %0) unnamed_addr #0 {
  %2 = alloca ptr, align 8
  %3 = alloca i64, align 8
  %4 = alloca i64, align 8
  call void @llvm.lifetime.start.p0(i64 8, ptr nonnull %2) #11
  store ptr null, ptr %2, align 8
  call void @llvm.lifetime.start.p0(i64 8, ptr nonnull %3) #11
  call void @llvm.lifetime.start.p0(i64 8, ptr nonnull %4) #11
  store i64 0, ptr %4, align 8
  %5 = call i32 @common_cgroup_get_param(ptr noundef %0, ptr noundef nonnull @.str.14, ptr noundef nonnull %2, ptr noundef nonnull %3) #11
  %.not = icmp eq i32 %5, 0
  br i1 %.not, label %6, label %30

6:                                                ; preds = %1
  %7 = load ptr, ptr %2, align 8
  %.not6 = icmp eq ptr %7, null
  br i1 %.not6, label %30, label %8

8:                                                ; preds = %6
  %9 = call ptr @xstrstr(ptr noundef nonnull %7, ptr noundef nonnull @.str.35) #11
  %.not7 = icmp eq ptr %9, null
  br i1 %.not7, label %16, label %10

10:                                               ; preds = %8
  %11 = call i32 (ptr, ptr, ...) @__isoc99_sscanf(ptr noundef nonnull %9, ptr noundef nonnull @.str.105, ptr noundef nonnull %4) #11
  %.not8 = icmp eq i32 %11, 1
  br i1 %.not8, label %16, label %12

12:                                               ; preds = %10
  %13 = getelementptr inbounds nuw i8, ptr %0, i64 16
  %14 = load ptr, ptr %13, align 8
  %15 = call i32 (ptr, ...) @error(ptr noundef nonnull @.str.106, ptr noundef %14) #11
  br label %16

16:                                               ; preds = %10, %12, %8
  call void @slurm_xfree(ptr noundef nonnull %2) #11
  %17 = load i64, ptr getelementptr inbounds nuw (i8, ptr @slurm_conf, i64 320), align 8
  %18 = and i64 %17, 36028797018963968
  %.not9 = icmp eq i64 %18, 0
  br i1 %.not9, label %26, label %19

19:                                               ; preds = %16
  %20 = call i32 @get_log_level() #11
  %21 = icmp sgt i32 %20, 3
  br i1 %21, label %22, label %26

22:                                               ; preds = %19
  %23 = load i64, ptr %4, align 8
  %24 = getelementptr inbounds nuw i8, ptr %0, i64 16
  %25 = load ptr, ptr %24, align 8
  call void (i32, ptr, ...) @log_var(i32 noundef 4, ptr noundef nonnull @.str.107, ptr noundef nonnull @plugin_type, ptr noundef nonnull @__func__._get_oom_kill_from_file, i64 noundef %23, ptr noundef %25) #11
  br label %26

26:                                               ; preds = %19, %22, %16
  %27 = load i64, ptr %4, align 8
  %28 = load i64, ptr @oom_kill_count, align 8
  %29 = add i64 %28, %27
  store i64 %29, ptr @oom_kill_count, align 8
  br label %30

30:                                               ; preds = %6, %26, %1
  %.0 = phi i32 [ -1, %1 ], [ 0, %26 ], [ 0, %6 ]
  call void @llvm.lifetime.end.p0(i64 8, ptr nonnull %4) #11
  call void @llvm.lifetime.end.p0(i64 8, ptr nonnull %3) #11
  call void @llvm.lifetime.end.p0(i64 8, ptr nonnull %2) #11
  ret i32 %.0
}